target datalayout = "e-m:e-p270:32:32-p271:32:32-p272:64:64-i64:64-i128:128-f80:128-n8:16:32:64-S128"
target triple = "x86_64-pc-linux-gnu"

%struct._zend_refcounted_h = type { i32, %union.anon }
%union.anon = type { i32 }
%struct.smart_str = type { ptr, i64 }
%struct._zend_string = type { %struct._zend_refcounted_h, i64, i64, [1 x i8] }

@zend_write = global ptr null, align 8

; Function Attrs: nounwind uwtable
define ptr @zend_print_zval_r_to_str(ptr noundef %0, i32 noundef %1) #0 {
  %3 = alloca ptr, align 8
  %4 = alloca ptr, align 8
  %5 = alloca i32, align 4
  %6 = alloca %struct.smart_str, align 8
  store ptr %0, ptr %4, align 8
  store i32 %1, ptr %5, align 4
  call void @llvm.memset.p0.i64(ptr align 8 %6, i8 0, i64 16, i1 false)
  %7 = load ptr, ptr %4, align 8
  %8 = load i32, ptr %5, align 4
  call void @zend_print_zval_r_to_buf(ptr noundef %6, ptr noundef %7, i32 noundef %8)
  store ptr %6, ptr %3, align 8
  %9 = load ptr, ptr %3, align 8
  %10 = load ptr, ptr %9, align 8
  %11 = icmp ne ptr %10, null
  br i1 %11, label %12, label %21

12:                                               ; preds = %2
  %13 = load ptr, ptr %3, align 8
  %14 = load ptr, ptr %13, align 8
  %15 = getelementptr inbounds %struct._zend_string, ptr %14, i32 0, i32 3
  %16 = load ptr, ptr %3, align 8
  %17 = load ptr, ptr %16, align 8
  %18 = getelementptr inbounds %struct._zend_string, ptr %17, i32 0, i32 2
  %19 = load i64, ptr %18, align 8
  %20 = getelementptr inbounds [1 x i8], ptr %15, i64 0, i64 %19
  store i8 0, ptr %20, align 1
  br label %21

21:                                               ; preds = %12, %2
  %22 = getelementptr inbounds %struct.smart_str, ptr %6, i32 0, i32 0
  %23 = load ptr, ptr %22, align 8
  ret ptr %23
}

; Function Attrs: nounwind uwtable
define void @zend_print_zval_r(ptr noundef %0, i32 noundef %1) #0 {
  %3 = alloca ptr, align 8
  %4 = alloca i32, align 4
  %5 = alloca ptr, align 8
  %6 = alloca i8, align 1
  %7 = alloca ptr, align 8
  %8 = alloca i32, align 4
  %9 = alloca ptr, align 8
  store ptr %0, ptr %7, align 8
  store i32 %1, ptr %8, align 4
  %10 = load ptr, ptr %7, align 8
  %11 = load i32, ptr %8, align 4
  %12 = call ptr @zend_print_zval_r_to_str(ptr noundef %10, i32 noundef %11)
  store ptr %12, ptr %9, align 8
  %13 = load ptr, ptr @zend_write, align 8
  %14 = load ptr, ptr %9, align 8
  %15 = getelementptr inbounds %struct._zend_string, ptr %14, i32 0, i32 3
  %16 = getelementptr inbounds [1 x i8], ptr %15, i64 0, i64 0
  %17 = load ptr, ptr %9, align 8
  %18 = getelementptr inbounds %struct._zend_string, ptr %17, i32 0, i32 2
  %19 = load i64, ptr %18, align 8
  %20 = call i64 %13(ptr noundef %16, i64 noundef %19)
  %21 = load ptr, ptr %9, align 8
  store ptr %21, ptr %5, align 8
  store i8 0, ptr %6, align 1
  %22 = load ptr, ptr %5, align 8
  %23 = getelementptr inbounds %struct._zend_refcounted_h, ptr %22, i32 0, i32 1
  %24 = load i32, ptr %23, align 4
  store i32 %24, ptr %4, align 4
  %25 = load i32, ptr %4, align 4
  %26 = and i32 %25, 1008
  %27 = and i32 %26, 64
  %28 = icmp ne i32 %27, 0
  br i1 %28, label %47, label %29

29:                                               ; preds = %2
  %30 = load ptr, ptr %5, align 8
  store ptr %30, ptr %3, align 8
  %31 = load ptr, ptr %3, align 8
  %32 = load i32, ptr %31, align 4
  %33 = icmp ugt i32 %32, 0
  call void @llvm.assume(i1 %33)
  %34 = load ptr, ptr %3, align 8
  %35 = load i32, ptr %34, align 4
  %36 = add i32 %35, -1
  store i32 %36, ptr %34, align 4
  %37 = icmp eq i32 %36, 0
  br i1 %37, label %38, label %46

38:                                               ; preds = %29
  %39 = load i8, ptr %6, align 1
  %40 = trunc i8 %39 to i1
  br i1 %40, label %41, label %43

41:                                               ; preds = %38
  %42 = load ptr, ptr %5, align 8
  call void @free(ptr noundef %42) #18
  br label %45

43:                                               ; preds = %38
  %44 = load ptr, ptr %5, align 8
  call void @_efree(ptr noundef %44) #18
  br label %45

45:                                               ; preds = %43, %41
  br label %46

46:                                               ; preds = %45, %29
  br label %47

47:                                               ; preds = %46, %2
  ret void
}